; Function Attrs: nounwind uwtable
define internal void @destruct_loader(ptr noundef %0, ptr readnone captures(none) %1) #2 {
  %.not.i = icmp eq ptr %0, null
  br i1 %.not.i, label %13, label %3

3:                                                ; preds = %2
  %4 = getelementptr inbounds nuw i8, ptr %0, i64 96
  %5 = load ptr, ptr %4, align 8, !tbaa !3
  %.not7.i = icmp eq ptr %5, null
  br i1 %.not7.i, label %13, label %6

6:                                                ; preds = %3
  %7 = getelementptr inbounds nuw i8, ptr %0, i64 128
  %8 = atomicrmw sub ptr %7, i32 1 release, align 4
  %9 = icmp eq i32 %8, 1
  br i1 %9, label %11, label %CRYPTO_DOWN_REF.exit.i

CRYPTO_DOWN_REF.exit.i:                           ; preds = %6
  %10 = icmp sgt i32 %8, 1
  br i1 %10, label %OSSL_STORE_LOADER_free.exit, label %.sink.split.i

11:                                               ; preds = %6
  fence acquire
  br label %.sink.split.i

.sink.split.i:                                    ; preds = %11, %CRYPTO_DOWN_REF.exit.i
  %12 = load ptr, ptr %4, align 8, !tbaa !3
  tail call void @ossl_provider_free(ptr noundef %12) #6
  br label %13

13:                                               ; preds = %.sink.split.i, %3, %2
  tail call void @CRYPTO_free(ptr noundef %0, ptr noundef nonnull @.str, i32 noundef 39) #6
  br label %OSSL_STORE_LOADER_free.exit

OSSL_STORE_LOADER_free.exit:                      ; preds = %CRYPTO_DOWN_REF.exit.i, %13
  ret void
}